target datalayout = "e-m:e-p270:32:32-p271:32:32-p272:64:64-i64:64-i128:128-f80:128-n8:16:32:64-S128"
target triple = "x86_64-pc-linux-gnu"

%struct.QArrayData = type { %"class.QtPrivate::RefCount", i32, i32, i64 }
%"class.QtPrivate::RefCount" = type { %class.QBasicAtomicInteger }
%class.QBasicAtomicInteger = type { %"struct.std::atomic" }
%"struct.std::atomic" = type { %"struct.std::__atomic_base" }
%"struct.std::__atomic_base" = type { i32 }
%class.QString = type { ptr }

@.str.9 = private unnamed_addr constant [4 x i8] c"NXS\00", align 1
@.str.11 = private unnamed_addr constant [4 x i8] c"NXZ\00", align 1

; Function Attrs: mustprogress nounwind uwtable
define linkonce_odr noundef ptr @_ZN10QArrayData4dataEv(ptr noundef nonnull align 8 dereferenceable(24) %0) #4 comdat align 2 {
  %2 = alloca ptr, align 8
  store ptr %0, ptr %2, align 8
  %3 = load ptr, ptr %2, align 8
  %4 = getelementptr inbounds %struct.QArrayData, ptr %3, i32 0, i32 3
  %5 = load i64, ptr %4, align 8
  %6 = getelementptr inbounds i8, ptr %3, i64 %5
  ret ptr %6
}

; Function Attrs: mustprogress uwtable
define linkonce_odr noundef ptr @_ZN15QTypedArrayDataItE4dataEv(ptr noundef nonnull align 8 dereferenceable(24) %0) #5 comdat align 2 {
  %2 = alloca ptr, align 8
  store ptr %0, ptr %2, align 8
  %3 = load ptr, ptr %2, align 8
  %4 = call noundef ptr @_ZN10QArrayData4dataEv(ptr noundef nonnull align 8 dereferenceable(24) %3)
  ret ptr %4
}

; Function Attrs: mustprogress nounwind uwtable
define linkonce_odr noundef i32 @_ZNK7QString4sizeEv(ptr noundef nonnull align 8 dereferenceable(8) %0) #4 comdat align 2 {
  %2 = alloca ptr, align 8
  store ptr %0, ptr %2, align 8
  %3 = load ptr, ptr %2, align 8
  %4 = getelementptr inbounds %class.QString, ptr %3, i32 0, i32 0
  %5 = load ptr, ptr %4, align 8
  %6 = getelementptr inbounds %struct.QArrayData, ptr %5, i32 0, i32 1
  %7 = load i32, ptr %6, align 4
  ret i32 %7
}

; Function Attrs: mustprogress uwtable
define linkonce_odr noundef ptr @_ZNK7QString9constDataEv(ptr noundef nonnull align 8 dereferenceable(8) %0) #5 comdat align 2 {
  %2 = alloca ptr, align 8
  store ptr %0, ptr %2, align 8
  %3 = load ptr, ptr %2, align 8
  %4 = getelementptr inbounds %class.QString, ptr %3, i32 0, i32 0
  %5 = load ptr, ptr %4, align 8
  %6 = call noundef ptr @_ZN15QTypedArrayDataItE4dataEv(ptr noundef nonnull align 8 dereferenceable(24) %5)
  ret ptr %6
}

; Function Attrs: mustprogress uwtable
define linkonce_odr noundef zeroext i1 @_ZNK7QStringeqEPKc(ptr noundef nonnull align 8 dereferenceable(8) %0, ptr noundef %1) #5 comdat align 2 {
  %3 = alloca ptr, align 8
  %4 = alloca ptr, align 8
  store ptr %0, ptr %3, align 8
  store ptr %1, ptr %4, align 8
  %5 = load ptr, ptr %3, align 8
  %6 = call noundef ptr @_ZNK7QString9constDataEv(ptr noundef nonnull align 8 dereferenceable(8) %5)
  %7 = call noundef i32 @_ZNK7QString4sizeEv(ptr noundef nonnull align 8 dereferenceable(8) %5)
  %8 = load ptr, ptr %4, align 8
  %9 = call noundef i32 @_ZN7QString14compare_helperEPK5QChariPKciN2Qt15CaseSensitivityE(ptr noundef %6, i32 noundef %7, ptr noundef %8, i32 noundef -1, i32 noundef 1)
  %10 = icmp eq i32 %9, 0
  ret i1 %10
}

; Function Attrs: mustprogress uwtable
define linkonce_odr void @_ZNKR7QString7toUpperEv(ptr dead_on_unwind noalias writable sret(%class.QString) align 8 %0, ptr noundef nonnull align 8 dereferenceable(8) %1) #5 comdat align 2 {
  %3 = alloca ptr, align 8
  %4 = alloca ptr, align 8
  store ptr %0, ptr %3, align 8
  store ptr %1, ptr %4, align 8
  %5 = load ptr, ptr %4, align 8
  call void @_ZN7QString14toUpper_helperERKS_(ptr dead_on_unwind writable sret(%class.QString) align 8 %0, ptr noundef nonnull align 8 dereferenceable(8) %5)
  ret void
}

; Function Attrs: mustprogress uwtable
define void @_ZNK17FilterIONXSPlugin20exportMaskCapabilityERK7QStringRiS3_(ptr noundef nonnull align 8 dereferenceable(96) %0, ptr noundef nonnull align 8 dereferenceable(8) %1, ptr noundef nonnull align 4 dereferenceable(4) %2, ptr noundef nonnull align 4 dereferenceable(4) %3) unnamed_addr #5 align 2 personality ptr @__gxx_personality_v0 {
  %5 = alloca ptr, align 8
  %6 = alloca ptr, align 8
  %7 = alloca ptr, align 8
  %8 = alloca ptr, align 8
  %9 = alloca %class.QString, align 8
  %10 = alloca ptr, align 8
  %11 = alloca i32, align 4
  %12 = alloca %class.QString, align 8
  %13 = alloca i1, align 1
  store ptr %0, ptr %5, align 8
  store ptr %1, ptr %6, align 8
  store ptr %2, ptr %7, align 8
  store ptr %3, ptr %8, align 8
  %14 = load ptr, ptr %6, align 8
  call void @_ZNKR7QString7toUpperEv(ptr dead_on_unwind writable sret(%class.QString) align 8 %9, ptr noundef nonnull align 8 dereferenceable(8) %14)
  store i1 false, ptr %13, align 1
  %15 = invoke noundef zeroext i1 @_ZNK7QStringeqEPKc(ptr noundef nonnull align 8 dereferenceable(8) %9, ptr noundef @.str.9)
          to label %16 unwind label %30

16:                                               ; preds = %4
  br i1 %15, label %22, label %17

17:                                               ; preds = %16
  %18 = load ptr, ptr %6, align 8
  invoke void @_ZNKR7QString7toUpperEv(ptr dead_on_unwind writable sret(%class.QString) align 8 %12, ptr noundef nonnull align 8 dereferenceable(8) %18)
          to label %19 unwind label %30

19:                                               ; preds = %17
  store i1 true, ptr %13, align 1
  %20 = invoke noundef zeroext i1 @_ZNK7QStringeqEPKc(ptr noundef nonnull align 8 dereferenceable(8) %12, ptr noundef @.str.11)
          to label %21 unwind label %34

21:                                               ; preds = %19
  br label %22

22:                                               ; preds = %21, %16
  %23 = phi i1 [ true, %16 ], [ %20, %21 ]
  %24 = load i1, ptr %13, align 1
  br i1 %24, label %25, label %26

25:                                               ; preds = %22
  call void @_ZN7QStringD2Ev(ptr noundef nonnull align 8 dereferenceable(8) %12) #3
  br label %26

26:                                               ; preds = %25, %22
  call void @_ZN7QStringD2Ev(ptr noundef nonnull align 8 dereferenceable(8) %9) #3
  br i1 %23, label %27, label %42

27:                                               ; preds = %26
  %28 = load ptr, ptr %7, align 8
  store i32 4148, ptr %28, align 4
  %29 = load ptr, ptr %8, align 8
  store i32 4132, ptr %29, align 4
  br label %42

30:                                               ; preds = %17, %4
  %31 = landingpad { ptr, i32 }
          cleanup
  %32 = extractvalue { ptr, i32 } %31, 0
  store ptr %32, ptr %10, align 8
  %33 = extractvalue { ptr, i32 } %31, 1
  store i32 %33, ptr %11, align 4
  br label %41

34:                                               ; preds = %19
  %35 = landingpad { ptr, i32 }
          cleanup
  %36 = extractvalue { ptr, i32 } %35, 0
  store ptr %36, ptr %10, align 8
  %37 = extractvalue { ptr, i32 } %35, 1
  store i32 %37, ptr %11, align 4
  %38 = load i1, ptr %13, align 1
  br i1 %38, label %39, label %40

39:                                               ; preds = %34
  call void @_ZN7QStringD2Ev(ptr noundef nonnull align 8 dereferenceable(8) %12) #3
  br label %40

40:                                               ; preds = %39, %34
  br label %41

41:                                               ; preds = %40, %30
  call void @_ZN7QStringD2Ev(ptr noundef nonnull align 8 dereferenceable(8) %9) #3
  br label %43

42:                                               ; preds = %27, %26
  ret void

43:                                               ; preds = %41
  %44 = load ptr, ptr %10, align 8
  %45 = load i32, ptr %11, align 4
  %46 = insertvalue { ptr, i32 } poison, ptr %44, 0
  %47 = insertvalue { ptr, i32 } %46, i32 %45, 1
  resume { ptr, i32 } %47
}