; Function Attrs: mustprogress uwtable
define void @_ZNK17FilterIONXSPlugin20exportMaskCapabilityERK7QStringRiS3_(ptr nocapture nonnull readnone align 8 %0, ptr noundef nonnull align 8 dereferenceable(8) %1, ptr nocapture noundef nonnull writeonly align 4 dereferenceable(4) %2, ptr nocapture noundef nonnull writeonly align 4 dereferenceable(4) %3) unnamed_addr #9 align 2 personality ptr @__gxx_personality_v0 {
  %5 = alloca %class.QString, align 8
  %6 = alloca %class.QString, align 8
  call void @_ZN7QString14toUpper_helperERKS_(ptr dead_on_unwind nonnull writable sret(%class.QString) align 8 %5, ptr noundef nonnull align 8 dereferenceable(8) %1)
  %7 = load ptr, ptr %5, align 8
  %8 = getelementptr inbounds i8, ptr %7, i64 16
  %9 = load i64, ptr %8, align 8
  %10 = getelementptr inbounds i8, ptr %7, i64 %9
  %11 = getelementptr inbounds i8, ptr %7, i64 4
  %12 = load i32, ptr %11, align 4
  %13 = invoke noundef i32 @_ZN7QString14compare_helperEPK5QChariPKciN2Qt15CaseSensitivityE(ptr noundef nonnull %10, i32 noundef %12, ptr noundef nonnull @.str.9, i32 noundef -1, i32 noundef 1)
          to label %14 unwind label %36

14:                                               ; preds = %4
  %15 = icmp eq i32 %13, 0
  br i1 %15, label %_ZN7QStringD2Ev.exit, label %16

16:                                               ; preds = %14
  invoke void @_ZN7QString14toUpper_helperERKS_(ptr dead_on_unwind nonnull writable sret(%class.QString) align 8 %6, ptr noundef nonnull align 8 dereferenceable(8) %1)
          to label %_ZNKR7QString7toUpperEv.exit unwind label %36

_ZNKR7QString7toUpperEv.exit:                     ; preds = %16
  %17 = load ptr, ptr %6, align 8
  %18 = getelementptr inbounds i8, ptr %17, i64 16
  %19 = load i64, ptr %18, align 8
  %20 = getelementptr inbounds i8, ptr %17, i64 %19
  %21 = getelementptr inbounds i8, ptr %17, i64 4
  %22 = load i32, ptr %21, align 4
  %23 = invoke noundef i32 @_ZN7QString14compare_helperEPK5QChariPKciN2Qt15CaseSensitivityE(ptr noundef nonnull %20, i32 noundef %22, ptr noundef nonnull @.str.11, i32 noundef -1, i32 noundef 1)
          to label %24 unwind label %38

24:                                               ; preds = %_ZNKR7QString7toUpperEv.exit
  %25 = icmp eq i32 %23, 0
  %26 = load ptr, ptr %6, align 8
  %27 = load atomic i32, ptr %26 monotonic, align 4
  switch i32 %27, label %_ZN9QtPrivate8RefCount5derefEv.exit.i [
    i32 0, label %_ZN9QtPrivate8RefCount5derefEv.exit.thread2.i
    i32 -1, label %_ZN7QStringD2Ev.exit
  ]

_ZN9QtPrivate8RefCount5derefEv.exit.i:            ; preds = %24
  %28 = atomicrmw sub ptr %26, i32 1 seq_cst, align 4
  %.not.i = icmp eq i32 %28, 1
  br i1 %.not.i, label %_ZN9QtPrivate8RefCount5derefEv.exit._ZN9QtPrivate8RefCount5derefEv.exit.thread2_crit_edge.i, label %_ZN7QStringD2Ev.exit

_ZN9QtPrivate8RefCount5derefEv.exit._ZN9QtPrivate8RefCount5derefEv.exit.thread2_crit_edge.i: ; preds = %_ZN9QtPrivate8RefCount5derefEv.exit.i
  %.pre.i = load ptr, ptr %6, align 8
  br label %_ZN9QtPrivate8RefCount5derefEv.exit.thread2.i

_ZN9QtPrivate8RefCount5derefEv.exit.thread2.i:    ; preds = %_ZN9QtPrivate8RefCount5derefEv.exit._ZN9QtPrivate8RefCount5derefEv.exit.thread2_crit_edge.i, %24
  %29 = phi ptr [ %.pre.i, %_ZN9QtPrivate8RefCount5derefEv.exit._ZN9QtPrivate8RefCount5derefEv.exit.thread2_crit_edge.i ], [ %26, %24 ]
  call void @_ZN10QArrayData10deallocateEPS_mm(ptr noundef %29, i64 noundef 2, i64 noundef 8) #26
  br label %_ZN7QStringD2Ev.exit

_ZN7QStringD2Ev.exit:                             ; preds = %14, %_ZN9QtPrivate8RefCount5derefEv.exit.thread2.i, %_ZN9QtPrivate8RefCount5derefEv.exit.i, %24
  %30 = phi i1 [ %25, %24 ], [ %25, %_ZN9QtPrivate8RefCount5derefEv.exit.i ], [ %25, %_ZN9QtPrivate8RefCount5derefEv.exit.thread2.i ], [ true, %14 ]
  %31 = load ptr, ptr %5, align 8
  %32 = load atomic i32, ptr %31 monotonic, align 4
  switch i32 %32, label %_ZN9QtPrivate8RefCount5derefEv.exit.i12 [
    i32 0, label %_ZN9QtPrivate8RefCount5derefEv.exit.thread2.i11
    i32 -1, label %_ZN7QStringD2Ev.exit16
  ]

_ZN9QtPrivate8RefCount5derefEv.exit.i12:          ; preds = %_ZN7QStringD2Ev.exit
  %33 = atomicrmw sub ptr %31, i32 1 seq_cst, align 4
  %.not.i13 = icmp eq i32 %33, 1
  br i1 %.not.i13, label %_ZN9QtPrivate8RefCount5derefEv.exit._ZN9QtPrivate8RefCount5derefEv.exit.thread2_crit_edge.i14, label %_ZN7QStringD2Ev.exit16

_ZN9QtPrivate8RefCount5derefEv.exit._ZN9QtPrivate8RefCount5derefEv.exit.thread2_crit_edge.i14: ; preds = %_ZN9QtPrivate8RefCount5derefEv.exit.i12
  %.pre.i15 = load ptr, ptr %5, align 8
  br label %_ZN9QtPrivate8RefCount5derefEv.exit.thread2.i11

_ZN9QtPrivate8RefCount5derefEv.exit.thread2.i11:  ; preds = %_ZN9QtPrivate8RefCount5derefEv.exit._ZN9QtPrivate8RefCount5derefEv.exit.thread2_crit_edge.i14, %_ZN7QStringD2Ev.exit
  %34 = phi ptr [ %.pre.i15, %_ZN9QtPrivate8RefCount5derefEv.exit._ZN9QtPrivate8RefCount5derefEv.exit.thread2_crit_edge.i14 ], [ %31, %_ZN7QStringD2Ev.exit ]
  call void @_ZN10QArrayData10deallocateEPS_mm(ptr noundef %34, i64 noundef 2, i64 noundef 8) #26
  br label %_ZN7QStringD2Ev.exit16

_ZN7QStringD2Ev.exit16:                           ; preds = %_ZN7QStringD2Ev.exit, %_ZN9QtPrivate8RefCount5derefEv.exit.i12, %_ZN9QtPrivate8RefCount5derefEv.exit.thread2.i11
  br i1 %30, label %35, label %41

35:                                               ; preds = %_ZN7QStringD2Ev.exit16
  store i32 4148, ptr %2, align 4
  store i32 4132, ptr %3, align 4
  br label %41

36:                                               ; preds = %16, %4
  %37 = landingpad { ptr, i32 }
          cleanup
  br label %40

38:                                               ; preds = %_ZNKR7QString7toUpperEv.exit
  %39 = landingpad { ptr, i32 }
          cleanup
  call void @_ZN7QStringD2Ev(ptr noundef nonnull align 8 dereferenceable(8) %6) #26
  br label %40

40:                                               ; preds = %38, %36
  %.pn = phi { ptr, i32 } [ %39, %38 ], [ %37, %36 ]
  call void @_ZN7QStringD2Ev(ptr noundef nonnull align 8 dereferenceable(8) %5) #26
  resume { ptr, i32 } %.pn

41:                                               ; preds = %35, %_ZN7QStringD2Ev.exit16
  ret void
}